; Function Attrs: nounwind uwtable
define internal noundef i32 @OnUpdateSidLength(ptr nocapture readnone %0, ptr noundef %1, ptr nocapture readnone %2, ptr nocapture readnone %3, ptr nocapture readnone %4, i32 noundef %5) #0 {
  %7 = alloca ptr, align 8
  store ptr null, ptr %7, align 8
  %8 = load i32, ptr getelementptr inbounds (%struct._php_ps_globals, ptr @ps_globals, i64 0, i32 14), align 8
  %9 = icmp eq i32 %8, 2
  br i1 %9, label %10, label %11

10:                                               ; preds = %6
  tail call void (ptr, i32, ptr, ...) @php_error_docref(ptr noundef null, i32 noundef 2, ptr noundef nonnull @.str.237) #23
  br label %27

11:                                               ; preds = %6
  %12 = load i8, ptr getelementptr inbounds (%struct._sapi_globals_struct, ptr @sapi_globals, i64 0, i32 5), align 1
  %13 = icmp ne i8 %12, 0
  %14 = icmp ne i32 %5, 8
  %or.cond = and i1 %14, %13
  br i1 %or.cond, label %15, label %16

15:                                               ; preds = %11
  tail call void (ptr, i32, ptr, ...) @php_error_docref(ptr noundef null, i32 noundef 2, ptr noundef nonnull @.str.238) #23
  br label %27

16:                                               ; preds = %11
  %17 = getelementptr inbounds i8, ptr %1, i64 24
  %18 = call i64 @strtoll(ptr noundef nonnull %17, ptr noundef nonnull %7, i32 noundef 10) #23
  %19 = load ptr, ptr %7, align 8
  %.not = icmp eq ptr %19, null
  br i1 %.not, label %26, label %20

20:                                               ; preds = %16
  %21 = load i8, ptr %19, align 1
  %22 = icmp eq i8 %21, 0
  %23 = icmp sgt i64 %18, 21
  %or.cond3 = select i1 %22, i1 %23, i1 false
  %24 = icmp slt i64 %18, 257
  %or.cond5 = select i1 %or.cond3, i1 %24, i1 false
  br i1 %or.cond5, label %25, label %26

25:                                               ; preds = %20
  store i64 %18, ptr getelementptr inbounds (%struct._php_ps_globals, ptr @ps_globals, i64 0, i32 36), align 8
  br label %27

26:                                               ; preds = %20, %16
  tail call void (ptr, i32, ptr, ...) @php_error_docref(ptr noundef null, i32 noundef 2, ptr noundef nonnull @.str.244) #23
  br label %27

27:                                               ; preds = %26, %25, %15, %10
  %.0 = phi i32 [ -1, %10 ], [ -1, %15 ], [ 0, %25 ], [ -1, %26 ]
  ret i32 %.0
}